target datalayout = "e-m:e-p270:32:32-p271:32:32-p272:64:64-i64:64-i128:128-f80:128-n8:16:32:64-S128"
target triple = "x86_64-pc-linux-gnu"

%class.RelocationHolder = type { [40 x i8] }
%class.RelocIterator = type { ptr, ptr, ptr, ptr, ptr, i16, ptr, i16, [3 x ptr], [3 x ptr], %class.RelocationHolder }
%class.Relocation.base = type <{ ptr, ptr, i32 }>
%class.virtual_call_Relocation = type <{ %class.CallRelocation.base, [4 x i8], ptr, i32, [4 x i8] }>
%class.CallRelocation.base = type { %class.Relocation.base }
%class.Relocation = type <{ ptr, ptr, i32, [4 x i8] }>

; Function Attrs: mustprogress nounwind uwtable
define linkonce_odr hidden noundef i32 @_ZN9relocInfo14jint_from_dataEPs(ptr noundef %0) #1 comdat align 2 {
  %2 = alloca ptr, align 8
  store ptr %0, ptr %2, align 8
  %3 = load ptr, ptr %2, align 8
  %4 = getelementptr inbounds i16, ptr %3, i64 0
  %5 = load i16, ptr %4, align 2
  %6 = sext i16 %5 to i32
  %7 = shl i32 %6, 16
  %8 = load ptr, ptr %2, align 8
  %9 = getelementptr inbounds i16, ptr %8, i64 1
  %10 = load i16, ptr %9, align 2
  %11 = zext i16 %10 to i32
  %12 = add nsw i32 %7, %11
  ret i32 %12
}

; Function Attrs: mustprogress nounwind uwtable
define linkonce_odr hidden noundef ptr @_ZNK13RelocIterator4dataEv(ptr noundef nonnull align 8 dereferenceable(152) %0) #1 comdat align 2 {
  %2 = alloca ptr, align 8
  store ptr %0, ptr %2, align 8
  %3 = load ptr, ptr %2, align 8
  %4 = getelementptr inbounds %class.RelocIterator, ptr %3, i32 0, i32 6
  %5 = load ptr, ptr %4, align 8
  ret ptr %5
}

; Function Attrs: mustprogress nounwind uwtable
define linkonce_odr hidden noundef i32 @_ZNK13RelocIterator7datalenEv(ptr noundef nonnull align 8 dereferenceable(152) %0) #1 comdat align 2 {
  %2 = alloca ptr, align 8
  store ptr %0, ptr %2, align 8
  %3 = load ptr, ptr %2, align 8
  %4 = getelementptr inbounds %class.RelocIterator, ptr %3, i32 0, i32 7
  %5 = load i16, ptr %4, align 8
  %6 = sext i16 %5 to i32
  ret i32 %6
}

; Function Attrs: mustprogress nounwind uwtable
define linkonce_odr hidden noundef i32 @_ZN9relocInfo9addr_unitEv() #1 comdat align 2 {
  ret i32 1
}

; Function Attrs: mustprogress nounwind uwtable
define linkonce_odr hidden noundef ptr @_ZNK13RelocIterator4addrEv(ptr noundef nonnull align 8 dereferenceable(152) %0) #1 comdat align 2 {
  %2 = alloca ptr, align 8
  store ptr %0, ptr %2, align 8
  %3 = load ptr, ptr %2, align 8
  %4 = getelementptr inbounds %class.RelocIterator, ptr %3, i32 0, i32 4
  %5 = load ptr, ptr %4, align 8
  ret ptr %5
}

; Function Attrs: mustprogress nounwind uwtable
define linkonce_odr hidden noundef ptr @_ZNK10Relocation7bindingEv(ptr noundef nonnull align 8 dereferenceable(20) %0) #1 comdat align 2 {
  %2 = alloca ptr, align 8
  store ptr %0, ptr %2, align 8
  %3 = load ptr, ptr %2, align 8
  %4 = getelementptr inbounds %class.Relocation, ptr %3, i32 0, i32 1
  %5 = load ptr, ptr %4, align 8
  ret ptr %5
}

; Function Attrs: mustprogress nounwind uwtable
define linkonce_odr hidden noundef i32 @_ZN9relocInfo12jint_data_atEiPsi(i32 noundef %0, ptr noundef %1, i32 noundef %2) #1 comdat align 2 {
  %4 = alloca i32, align 4
  %5 = alloca ptr, align 8
  %6 = alloca i32, align 4
  store i32 %0, ptr %4, align 4
  store ptr %1, ptr %5, align 8
  store i32 %2, ptr %6, align 4
  %7 = load i32, ptr %6, align 4
  %8 = load i32, ptr %4, align 4
  %9 = add nsw i32 %8, 1
  %10 = icmp sgt i32 %7, %9
  br i1 %10, label %11, label %17

11:                                               ; preds = %3
  %12 = load ptr, ptr %5, align 8
  %13 = load i32, ptr %4, align 4
  %14 = sext i32 %13 to i64
  %15 = getelementptr inbounds i16, ptr %12, i64 %14
  %16 = call noundef i32 @_ZN9relocInfo14jint_from_dataEPs(ptr noundef %15)
  br label %22

17:                                               ; preds = %3
  %18 = load i32, ptr %4, align 4
  %19 = load ptr, ptr %5, align 8
  %20 = load i32, ptr %6, align 4
  %21 = call noundef i32 @_ZN9relocInfo13short_data_atEiPsi(i32 noundef %18, ptr noundef %19, i32 noundef %20)
  br label %22

22:                                               ; preds = %17, %11
  %23 = phi i32 [ %16, %11 ], [ %21, %17 ]
  ret i32 %23
}

; Function Attrs: mustprogress nounwind uwtable
define linkonce_odr hidden noundef i32 @_ZN9relocInfo13short_data_atEiPsi(i32 noundef %0, ptr noundef %1, i32 noundef %2) #1 comdat align 2 {
  %4 = alloca i32, align 4
  %5 = alloca ptr, align 8
  %6 = alloca i32, align 4
  store i32 %0, ptr %4, align 4
  store ptr %1, ptr %5, align 8
  store i32 %2, ptr %6, align 4
  %7 = load i32, ptr %6, align 4
  %8 = load i32, ptr %4, align 4
  %9 = icmp sgt i32 %7, %8
  br i1 %9, label %10, label %17

10:                                               ; preds = %3
  %11 = load ptr, ptr %5, align 8
  %12 = load i32, ptr %4, align 4
  %13 = sext i32 %12 to i64
  %14 = getelementptr inbounds i16, ptr %11, i64 %13
  %15 = load i16, ptr %14, align 2
  %16 = sext i16 %15 to i32
  br label %18

17:                                               ; preds = %3
  br label %18

18:                                               ; preds = %17, %10
  %19 = phi i32 [ %16, %10 ], [ 0, %17 ]
  ret i32 %19
}

; Function Attrs: mustprogress nounwind uwtable
define linkonce_odr hidden noundef ptr @_ZNK10Relocation4dataEv(ptr noundef nonnull align 8 dereferenceable(20) %0) #1 comdat align 2 {
  %2 = alloca ptr, align 8
  store ptr %0, ptr %2, align 8
  %3 = load ptr, ptr %2, align 8
  %4 = call noundef ptr @_ZNK10Relocation7bindingEv(ptr noundef nonnull align 8 dereferenceable(20) %3)
  %5 = call noundef ptr @_ZNK13RelocIterator4dataEv(ptr noundef nonnull align 8 dereferenceable(152) %4)
  ret ptr %5
}

; Function Attrs: mustprogress nounwind uwtable
define linkonce_odr hidden noundef i32 @_ZNK10Relocation7datalenEv(ptr noundef nonnull align 8 dereferenceable(20) %0) #1 comdat align 2 {
  %2 = alloca ptr, align 8
  store ptr %0, ptr %2, align 8
  %3 = load ptr, ptr %2, align 8
  %4 = call noundef ptr @_ZNK10Relocation7bindingEv(ptr noundef nonnull align 8 dereferenceable(20) %3)
  %5 = call noundef i32 @_ZNK13RelocIterator7datalenEv(ptr noundef nonnull align 8 dereferenceable(152) %4)
  ret i32 %5
}

; Function Attrs: mustprogress nounwind uwtable
define linkonce_odr hidden noundef ptr @_ZN10Relocation26address_from_scaled_offsetEiPh(i32 noundef %0, ptr noundef %1) #1 comdat align 2 {
  %3 = alloca i32, align 4
  %4 = alloca ptr, align 8
  %5 = alloca i32, align 4
  store i32 %0, ptr %3, align 4
  store ptr %1, ptr %4, align 8
  %6 = load i32, ptr %3, align 4
  %7 = call noundef i32 @_ZN9relocInfo9addr_unitEv()
  %8 = mul nsw i32 %6, %7
  %9 = sub nsw i32 0, %8
  store i32 %9, ptr %5, align 4
  %10 = load ptr, ptr %4, align 8
  %11 = load i32, ptr %5, align 4
  %12 = sext i32 %11 to i64
  %13 = getelementptr inbounds i8, ptr %10, i64 %12
  ret ptr %13
}

; Function Attrs: mustprogress nounwind uwtable
define linkonce_odr hidden noundef ptr @_ZNK10Relocation4addrEv(ptr noundef nonnull align 8 dereferenceable(20) %0) #1 comdat align 2 {
  %2 = alloca ptr, align 8
  store ptr %0, ptr %2, align 8
  %3 = load ptr, ptr %2, align 8
  %4 = call noundef ptr @_ZNK10Relocation7bindingEv(ptr noundef nonnull align 8 dereferenceable(20) %3)
  %5 = call noundef ptr @_ZNK13RelocIterator4addrEv(ptr noundef nonnull align 8 dereferenceable(152) %4)
  ret ptr %5
}

; Function Attrs: mustprogress nounwind uwtable
define linkonce_odr hidden void @_ZN10Relocation13unpack_2_intsERiS0_(ptr noundef nonnull align 8 dereferenceable(20) %0, ptr noundef nonnull align 4 dereferenceable(4) %1, ptr noundef nonnull align 4 dereferenceable(4) %2) #1 comdat align 2 {
  %4 = alloca ptr, align 8
  %5 = alloca ptr, align 8
  %6 = alloca ptr, align 8
  %7 = alloca i32, align 4
  %8 = alloca ptr, align 8
  store ptr %0, ptr %4, align 8
  store ptr %1, ptr %5, align 8
  store ptr %2, ptr %6, align 8
  %9 = load ptr, ptr %4, align 8
  %10 = call noundef i32 @_ZNK10Relocation7datalenEv(ptr noundef nonnull align 8 dereferenceable(20) %9)
  store i32 %10, ptr %7, align 4
  %11 = call noundef ptr @_ZNK10Relocation4dataEv(ptr noundef nonnull align 8 dereferenceable(20) %9)
  store ptr %11, ptr %8, align 8
  %12 = load i32, ptr %7, align 4
  %13 = icmp sle i32 %12, 2
  br i1 %13, label %14, label %23

14:                                               ; preds = %3
  %15 = load ptr, ptr %8, align 8
  %16 = load i32, ptr %7, align 4
  %17 = call noundef i32 @_ZN9relocInfo13short_data_atEiPsi(i32 noundef 0, ptr noundef %15, i32 noundef %16)
  %18 = load ptr, ptr %5, align 8
  store i32 %17, ptr %18, align 4
  %19 = load ptr, ptr %8, align 8
  %20 = load i32, ptr %7, align 4
  %21 = call noundef i32 @_ZN9relocInfo13short_data_atEiPsi(i32 noundef 1, ptr noundef %19, i32 noundef %20)
  %22 = load ptr, ptr %6, align 8
  store i32 %21, ptr %22, align 4
  br label %32

23:                                               ; preds = %3
  %24 = load ptr, ptr %8, align 8
  %25 = load i32, ptr %7, align 4
  %26 = call noundef i32 @_ZN9relocInfo12jint_data_atEiPsi(i32 noundef 0, ptr noundef %24, i32 noundef %25)
  %27 = load ptr, ptr %5, align 8
  store i32 %26, ptr %27, align 4
  %28 = load ptr, ptr %8, align 8
  %29 = load i32, ptr %7, align 4
  %30 = call noundef i32 @_ZN9relocInfo12jint_data_atEiPsi(i32 noundef 2, ptr noundef %28, i32 noundef %29)
  %31 = load ptr, ptr %6, align 8
  store i32 %30, ptr %31, align 4
  br label %32

32:                                               ; preds = %23, %14
  ret void
}

; Function Attrs: mustprogress nounwind uwtable
define hidden void @_ZN23virtual_call_Relocation11unpack_dataEv(ptr noundef nonnull align 8 dereferenceable(36) %0) unnamed_addr #1 align 2 {
  %2 = alloca ptr, align 8
  %3 = alloca i32, align 4
  %4 = alloca ptr, align 8
  store ptr %0, ptr %2, align 8
  %5 = load ptr, ptr %2, align 8
  store i32 0, ptr %3, align 4
  %6 = getelementptr inbounds %class.virtual_call_Relocation, ptr %5, i32 0, i32 3
  call void @_ZN10Relocation13unpack_2_intsERiS0_(ptr noundef nonnull align 8 dereferenceable(20) %5, ptr noundef nonnull align 4 dereferenceable(4) %3, ptr noundef nonnull align 4 dereferenceable(4) %6)
  %7 = call noundef ptr @_ZNK10Relocation4addrEv(ptr noundef nonnull align 8 dereferenceable(20) %5)
  store ptr %7, ptr %4, align 8
  %8 = load i32, ptr %3, align 4
  %9 = icmp eq i32 %8, 0
  br i1 %9, label %10, label %11

10:                                               ; preds = %1
  br label %15

11:                                               ; preds = %1
  %12 = load i32, ptr %3, align 4
  %13 = load ptr, ptr %4, align 8
  %14 = call noundef ptr @_ZN10Relocation26address_from_scaled_offsetEiPh(i32 noundef %12, ptr noundef %13)
  br label %15

15:                                               ; preds = %11, %10
  %16 = phi ptr [ null, %10 ], [ %14, %11 ]
  %17 = getelementptr inbounds %class.virtual_call_Relocation, ptr %5, i32 0, i32 2
  store ptr %16, ptr %17, align 8
  ret void
}