; Function Attrs: mustprogress nofree norecurse nosync nounwind willreturn memory(read, argmem: readwrite, inaccessiblemem: none) uwtable
define hidden void @_ZN23virtual_call_Relocation11unpack_dataEv(ptr nocapture noundef nonnull align 8 dereferenceable(36) %0) unnamed_addr #9 align 2 {
  %2 = getelementptr inbounds i8, ptr %0, i64 32
  %3 = getelementptr inbounds i8, ptr %0, i64 8
  %4 = load ptr, ptr %3, align 8
  %5 = getelementptr inbounds i8, ptr %4, i64 56
  %6 = load i16, ptr %5, align 8
  %7 = getelementptr inbounds i8, ptr %4, i64 48
  %8 = load ptr, ptr %7, align 8
  %9 = icmp slt i16 %6, 3
  br i1 %9, label %10, label %_ZN9relocInfo12jint_data_atEiPsi.exit.i

10:                                               ; preds = %1
  %11 = icmp sgt i16 %6, 0
  br i1 %11, label %_ZN9relocInfo13short_data_atEiPsi.exit.i, label %_ZN10Relocation13unpack_2_intsERiS0_.exit.thread

_ZN10Relocation13unpack_2_intsERiS0_.exit.thread: ; preds = %10
  store i32 0, ptr %2, align 8
  br label %41

_ZN9relocInfo13short_data_atEiPsi.exit.i:         ; preds = %10
  %12 = load i16, ptr %8, align 2
  %13 = sext i16 %12 to i32
  %.not15.i = icmp eq i16 %6, 1
  br i1 %.not15.i, label %_ZN10Relocation13unpack_2_intsERiS0_.exit, label %14

14:                                               ; preds = %_ZN9relocInfo13short_data_atEiPsi.exit.i
  %15 = getelementptr inbounds i8, ptr %8, i64 2
  %16 = load i16, ptr %15, align 2
  %17 = sext i16 %16 to i32
  br label %_ZN10Relocation13unpack_2_intsERiS0_.exit

_ZN9relocInfo12jint_data_atEiPsi.exit.i:          ; preds = %1
  %18 = load i16, ptr %8, align 2
  %19 = sext i16 %18 to i32
  %20 = shl nsw i32 %19, 16
  %21 = getelementptr inbounds i8, ptr %8, i64 2
  %22 = load i16, ptr %21, align 2
  %23 = zext i16 %22 to i32
  %24 = or disjoint i32 %20, %23
  %.not.i = icmp eq i16 %6, 3
  %25 = getelementptr inbounds i8, ptr %8, i64 4
  %26 = load i16, ptr %25, align 2
  %27 = sext i16 %26 to i32
  br i1 %.not.i, label %_ZN10Relocation13unpack_2_intsERiS0_.exit, label %28

28:                                               ; preds = %_ZN9relocInfo12jint_data_atEiPsi.exit.i
  %29 = shl nsw i32 %27, 16
  %30 = getelementptr inbounds i8, ptr %8, i64 6
  %31 = load i16, ptr %30, align 2
  %32 = zext i16 %31 to i32
  %33 = or disjoint i32 %29, %32
  br label %_ZN10Relocation13unpack_2_intsERiS0_.exit

_ZN10Relocation13unpack_2_intsERiS0_.exit:        ; preds = %_ZN9relocInfo13short_data_atEiPsi.exit.i, %14, %_ZN9relocInfo12jint_data_atEiPsi.exit.i, %28
  %.0 = phi i32 [ %13, %_ZN9relocInfo13short_data_atEiPsi.exit.i ], [ %13, %14 ], [ %24, %_ZN9relocInfo12jint_data_atEiPsi.exit.i ], [ %24, %28 ]
  %storemerge.i = phi i32 [ 0, %_ZN9relocInfo13short_data_atEiPsi.exit.i ], [ %17, %14 ], [ %27, %_ZN9relocInfo12jint_data_atEiPsi.exit.i ], [ %33, %28 ]
  store i32 %storemerge.i, ptr %2, align 8
  %34 = icmp eq i32 %.0, 0
  br i1 %34, label %41, label %35

35:                                               ; preds = %_ZN10Relocation13unpack_2_intsERiS0_.exit
  %36 = getelementptr inbounds i8, ptr %4, i64 32
  %37 = load ptr, ptr %36, align 8
  %38 = sub nsw i32 0, %.0
  %39 = sext i32 %38 to i64
  %40 = getelementptr inbounds i8, ptr %37, i64 %39
  br label %41

41:                                               ; preds = %_ZN10Relocation13unpack_2_intsERiS0_.exit.thread, %_ZN10Relocation13unpack_2_intsERiS0_.exit, %35
  %42 = phi ptr [ %40, %35 ], [ null, %_ZN10Relocation13unpack_2_intsERiS0_.exit ], [ null, %_ZN10Relocation13unpack_2_intsERiS0_.exit.thread ]
  %43 = getelementptr inbounds i8, ptr %0, i64 24
  store ptr %42, ptr %43, align 8
  ret void
}